target datalayout = "e-m:e-p270:32:32-p271:32:32-p272:64:64-i64:64-i128:128-f80:128-n8:16:32:64-S128"
target triple = "x86_64-pc-linux-gnu"

%struct._zval_struct = type { %union._zend_value, %union.anon.3, %union.anon.6 }
%union._zend_value = type { i64 }
%union.anon.3 = type { i32 }
%union.anon.6 = type { i32 }

; Function Attrs: nounwind uwtable
define zeroext i1 @zend_unary_op_produces_error(i32 noundef %0, ptr noundef %1) #0 {
  %3 = alloca ptr, align 8
  %4 = alloca ptr, align 8
  %5 = alloca i1, align 1
  %6 = alloca i32, align 4
  %7 = alloca ptr, align 8
  store i32 %0, ptr %6, align 4
  store ptr %1, ptr %7, align 8
  %8 = load i32, ptr %6, align 4
  %9 = icmp eq i32 %8, 13
  br i1 %9, label %10, label %31

10:                                               ; preds = %2
  %11 = load ptr, ptr %7, align 8
  store ptr %11, ptr %3, align 8
  %12 = load ptr, ptr %3, align 8
  %13 = getelementptr inbounds %struct._zval_struct, ptr %12, i32 0, i32 1
  %14 = load i8, ptr %13, align 8
  %15 = zext i8 %14 to i32
  %16 = icmp eq i32 %15, 6
  br i1 %16, label %17, label %18

17:                                               ; preds = %10
  store i1 false, ptr %5, align 1
  br label %32

18:                                               ; preds = %10
  %19 = load ptr, ptr %7, align 8
  store ptr %19, ptr %4, align 8
  %20 = load ptr, ptr %4, align 8
  %21 = getelementptr inbounds %struct._zval_struct, ptr %20, i32 0, i32 1
  %22 = load i8, ptr %21, align 8
  %23 = zext i8 %22 to i32
  %24 = icmp sle i32 %23, 3
  br i1 %24, label %29, label %25

25:                                               ; preds = %18
  %26 = load ptr, ptr %7, align 8
  %27 = call zeroext i1 @zend_is_op_long_compatible(ptr noundef %26)
  %28 = xor i1 %27, true
  br label %29

29:                                               ; preds = %25, %18
  %30 = phi i1 [ true, %18 ], [ %28, %25 ]
  store i1 %30, ptr %5, align 1
  br label %32

31:                                               ; preds = %2
  store i1 false, ptr %5, align 1
  br label %32

32:                                               ; preds = %31, %29, %17
  %33 = load i1, ptr %5, align 1
  ret i1 %33
}

; Function Attrs: nounwind uwtable
define internal zeroext i1 @zend_try_ct_eval_unary_op(ptr noundef %0, i32 noundef %1, ptr noundef %2) #0 {
  %4 = alloca i1, align 1
  %5 = alloca ptr, align 8
  %6 = alloca i32, align 4
  %7 = alloca ptr, align 8
  %8 = alloca ptr, align 8
  store ptr %0, ptr %5, align 8
  store i32 %1, ptr %6, align 4
  store ptr %2, ptr %7, align 8
  %9 = load i32, ptr %6, align 4
  %10 = load ptr, ptr %7, align 8
  %11 = call zeroext i1 @zend_unary_op_produces_error(i32 noundef %9, ptr noundef %10)
  br i1 %11, label %12, label %13

12:                                               ; preds = %3
  store i1 false, ptr %4, align 1
  br label %20

13:                                               ; preds = %3
  %14 = load i32, ptr %6, align 4
  %15 = call ptr @get_unary_op(i32 noundef %14)
  store ptr %15, ptr %8, align 8
  %16 = load ptr, ptr %8, align 8
  %17 = load ptr, ptr %5, align 8
  %18 = load ptr, ptr %7, align 8
  %19 = call i32 %16(ptr noundef %17, ptr noundef %18)
  store i1 true, ptr %4, align 1
  br label %20

20:                                               ; preds = %13, %12
  %21 = load i1, ptr %4, align 1
  ret i1 %21
}