; Function Attrs: nounwind uwtable
define internal fastcc noundef zeroext i1 @zend_try_ct_eval_unary_op(ptr noundef %0, i32 noundef %1, ptr noundef %2) unnamed_addr #0 {
  %4 = icmp eq i32 %1, 13
  br i1 %4, label %5, label %zend_unary_op_produces_error.exit.thread

5:                                                ; preds = %3
  %6 = getelementptr inbounds i8, ptr %2, i64 8
  %7 = load i8, ptr %6, align 8
  %8 = icmp eq i8 %7, 6
  br i1 %8, label %zend_unary_op_produces_error.exit.thread, label %9

9:                                                ; preds = %5
  %10 = icmp ult i8 %7, 4
  br i1 %10, label %zend_unary_op_produces_error.exit.thread9, label %zend_unary_op_produces_error.exit

zend_unary_op_produces_error.exit:                ; preds = %9
  %11 = tail call zeroext i1 @zend_is_op_long_compatible(ptr noundef nonnull %2)
  br i1 %11, label %zend_unary_op_produces_error.exit.thread, label %zend_unary_op_produces_error.exit.thread9

zend_unary_op_produces_error.exit.thread:         ; preds = %3, %5, %zend_unary_op_produces_error.exit
  %12 = tail call ptr @get_unary_op(i32 noundef %1) #30
  %13 = tail call i32 %12(ptr noundef %0, ptr noundef %2) #30
  br label %zend_unary_op_produces_error.exit.thread9

zend_unary_op_produces_error.exit.thread9:        ; preds = %9, %zend_unary_op_produces_error.exit, %zend_unary_op_produces_error.exit.thread
  %.0 = phi i1 [ false, %zend_unary_op_produces_error.exit ], [ true, %zend_unary_op_produces_error.exit.thread ], [ false, %9 ]
  ret i1 %.0
}